; Function Attrs: mustprogress nounwind uwtable
define internal noundef nonnull ptr @_ZL22createAArch64MCAsmInfoRKN4llvm14MCRegisterInfoERKNS_6TripleERKNS_15MCTargetOptionsE(ptr noundef nonnull align 8 dereferenceable(224) %0, ptr noundef nonnull align 8 dereferenceable(56) %1, ptr nonnull readnone align 8 captures(none) %2) #2 {
  %4 = alloca %"class.llvm::StringRef", align 8
  %5 = alloca %"class.llvm::StringRef", align 8
  %6 = alloca %"class.llvm::MCCFIInstruction", align 8
  %7 = getelementptr inbounds nuw i8, ptr %1, i64 52
  %8 = load i32, ptr %7, align 4
  %9 = icmp eq i32 %8, 5
  br i1 %9, label %10, label %15

10:                                               ; preds = %3
  %11 = tail call noalias noundef nonnull dereferenceable(488) ptr @_Znwm(i64 noundef 488) #19
  %12 = getelementptr inbounds nuw i8, ptr %1, i64 32
  %13 = load i32, ptr %12, align 8
  %14 = icmp eq i32 %13, 5
  tail call void @_ZN4llvm22AArch64MCAsmInfoDarwinC1Eb(ptr noundef nonnull align 8 dereferenceable(484) %11, i1 noundef zeroext %14) #18
  br label %30

15:                                               ; preds = %3
  %16 = getelementptr inbounds nuw i8, ptr %1, i64 44
  %17 = load i32, ptr %16, align 4
  %18 = icmp eq i32 %17, 14
  %19 = getelementptr inbounds nuw i8, ptr %1, i64 48
  %20 = load i32, ptr %19, align 8
  %21 = icmp eq i32 %20, 19
  %22 = icmp eq i32 %20, 0
  %23 = or i1 %21, %22
  %or.cond = select i1 %18, i1 %23, i1 false
  br i1 %or.cond, label %_ZNK4llvm6Triple24isWindowsMSVCEnvironmentEv.exit.thread, label %25

_ZNK4llvm6Triple24isWindowsMSVCEnvironmentEv.exit.thread: ; preds = %15
  %24 = tail call noalias noundef nonnull dereferenceable(488) ptr @_Znwm(i64 noundef 488) #19
  tail call void @_ZN4llvm29AArch64MCAsmInfoMicrosoftCOFFC1Ev(ptr noundef nonnull align 8 dereferenceable(484) %24) #18
  br label %30

25:                                               ; preds = %15
  %26 = icmp eq i32 %8, 1
  %27 = tail call noalias noundef nonnull dereferenceable(488) ptr @_Znwm(i64 noundef 488) #19
  br i1 %26, label %28, label %29

28:                                               ; preds = %25
  tail call void @_ZN4llvm23AArch64MCAsmInfoGNUCOFFC1Ev(ptr noundef nonnull align 8 dereferenceable(484) %27) #18
  br label %30

29:                                               ; preds = %25
  tail call void @_ZN4llvm19AArch64MCAsmInfoELFC1ERKNS_6TripleE(ptr noundef nonnull align 8 dereferenceable(484) %27, ptr noundef nonnull align 8 dereferenceable(56) %1) #18
  br label %30

30:                                               ; preds = %_ZNK4llvm6Triple24isWindowsMSVCEnvironmentEv.exit.thread, %29, %28, %10
  %.0 = phi ptr [ %11, %10 ], [ %24, %_ZNK4llvm6Triple24isWindowsMSVCEnvironmentEv.exit.thread ], [ %27, %28 ], [ %27, %29 ]
  %31 = tail call noundef i32 @_ZNK4llvm14MCRegisterInfo14getDwarfRegNumENS_10MCRegisterEb(ptr noundef nonnull align 8 dereferenceable(224) %0, i32 8, i1 noundef zeroext true) #18
  call void @llvm.lifetime.start.p0(i64 16, ptr nonnull %4)
  call void @llvm.lifetime.start.p0(i64 16, ptr nonnull %5)
  store ptr @.str.1079, ptr %4, align 8, !noalias !9
  %32 = getelementptr inbounds nuw i8, ptr %4, i64 8
  store i64 0, ptr %32, align 8, !noalias !9
  store ptr @.str.1079, ptr %5, align 8, !noalias !9
  %33 = getelementptr inbounds nuw i8, ptr %5, i64 8
  store i64 0, ptr %33, align 8, !noalias !9
  call void @_ZN4llvm16MCCFIInstructionC2ENS0_6OpTypeEPNS_8MCSymbolEjlNS_5SMLocENS_9StringRefES5_(ptr noundef nonnull align 8 dereferenceable(104) %6, i8 noundef zeroext 7, ptr noundef null, i32 noundef %31, i64 noundef 0, ptr null, ptr noundef nonnull byval(%"class.llvm::StringRef") align 8 %4, ptr noundef nonnull byval(%"class.llvm::StringRef") align 8 %5)
  call void @llvm.lifetime.end.p0(i64 16, ptr nonnull %4)
  call void @llvm.lifetime.end.p0(i64 16, ptr nonnull %5)
  call void @_ZN4llvm9MCAsmInfo20addInitialFrameStateERKNS_16MCCFIInstructionE(ptr noundef nonnull align 8 dereferenceable(484) %.0, ptr noundef nonnull align 8 dereferenceable(104) %6) #18
  %34 = getelementptr inbounds nuw i8, ptr %6, i64 72
  call void @_ZNSt7__cxx1112basic_stringIcSt11char_traitsIcESaIcEED1Ev(ptr noundef nonnull align 8 dereferenceable(32) %34) #18
  %35 = getelementptr inbounds nuw i8, ptr %6, i64 48
  %36 = load ptr, ptr %35, align 8
  %.not.i.i.i.i = icmp eq ptr %36, null
  br i1 %.not.i.i.i.i, label %_ZN4llvm16MCCFIInstructionD2Ev.exit, label %37

37:                                               ; preds = %30
  %38 = getelementptr inbounds nuw i8, ptr %6, i64 64
  %39 = load ptr, ptr %38, align 8
  %40 = ptrtoint ptr %39 to i64
  %41 = ptrtoint ptr %36 to i64
  %42 = sub i64 %40, %41
  call void @_ZdlPvm(ptr noundef nonnull %36, i64 noundef %42) #20
  br label %_ZN4llvm16MCCFIInstructionD2Ev.exit

_ZN4llvm16MCCFIInstructionD2Ev.exit:              ; preds = %30, %37
  call void @_ZNSaIcED2Ev(ptr noundef nonnull align 8 dereferenceable(24) %35) #18
  ret ptr %.0
}